target datalayout = "e-m:e-p270:32:32-p271:32:32-p272:64:64-i64:64-i128:128-f80:128-n8:16:32:64-S128"
target triple = "x86_64-pc-linux-gnu"

%struct.UCharIterator = type { ptr, i32, i32, i32, i32, i32, ptr, ptr, ptr, ptr, ptr, ptr, ptr, ptr, ptr, ptr }

; Function Attrs: inlinehint mustprogress nounwind uwtable
define internal noundef i32 @_ZL18utf16BEIteratorGetP13UCharIteratori(ptr noundef %0, i32 noundef %1) #7 {
  %3 = alloca ptr, align 8
  %4 = alloca i32, align 4
  %5 = alloca ptr, align 8
  store ptr %0, ptr %3, align 8, !tbaa !3
  store i32 %1, ptr %4, align 4, !tbaa !10
  call void @llvm.lifetime.start.p0(i64 8, ptr %5) #8
  %6 = load ptr, ptr %3, align 8, !tbaa !3
  %7 = getelementptr inbounds nuw %struct.UCharIterator, ptr %6, i32 0, i32 0
  %8 = load ptr, ptr %7, align 8, !tbaa !14
  store ptr %8, ptr %5, align 8, !tbaa !18
  %9 = load ptr, ptr %5, align 8, !tbaa !18
  %10 = load i32, ptr %4, align 4, !tbaa !10
  %11 = mul nsw i32 2, %10
  %12 = sext i32 %11 to i64
  %13 = getelementptr inbounds i8, ptr %9, i64 %12
  %14 = load i8, ptr %13, align 1, !tbaa !20
  %15 = zext i8 %14 to i16
  %16 = zext i16 %15 to i32
  %17 = shl i32 %16, 8
  %18 = load ptr, ptr %5, align 8, !tbaa !18
  %19 = load i32, ptr %4, align 4, !tbaa !10
  %20 = mul nsw i32 2, %19
  %21 = add nsw i32 %20, 1
  %22 = sext i32 %21 to i64
  %23 = getelementptr inbounds i8, ptr %18, i64 %22
  %24 = load i8, ptr %23, align 1, !tbaa !20
  %25 = zext i8 %24 to i16
  %26 = zext i16 %25 to i32
  %27 = or i32 %17, %26
  call void @llvm.lifetime.end.p0(i64 8, ptr %5) #8
  ret i32 %27
}

; Function Attrs: mustprogress nounwind uwtable
define internal noundef i32 @_ZL19utf16BEIteratorNextP13UCharIterator(ptr noundef %0) #3 {
  %2 = alloca i32, align 4
  %3 = alloca ptr, align 8
  %4 = alloca i32, align 4
  %5 = alloca i32, align 4
  store ptr %0, ptr %3, align 8, !tbaa !3
  call void @llvm.lifetime.start.p0(i64 4, ptr %4) #8
  %6 = load ptr, ptr %3, align 8, !tbaa !3
  %7 = getelementptr inbounds nuw %struct.UCharIterator, ptr %6, i32 0, i32 3
  %8 = load i32, ptr %7, align 8, !tbaa !40
  store i32 %8, ptr %4, align 4, !tbaa !10
  %9 = load ptr, ptr %3, align 8, !tbaa !3
  %10 = getelementptr inbounds nuw %struct.UCharIterator, ptr %9, i32 0, i32 4
  %11 = load i32, ptr %10, align 4, !tbaa !17
  %12 = icmp slt i32 %8, %11
  br i1 %12, label %13, label %21

13:                                               ; preds = %1
  %14 = load i32, ptr %4, align 4, !tbaa !10
  %15 = add nsw i32 %14, 1
  %16 = load ptr, ptr %3, align 8, !tbaa !3
  %17 = getelementptr inbounds nuw %struct.UCharIterator, ptr %16, i32 0, i32 3
  store i32 %15, ptr %17, align 8, !tbaa !40
  %18 = load ptr, ptr %3, align 8, !tbaa !3
  %19 = load i32, ptr %4, align 4, !tbaa !10
  %20 = call noundef i32 @_ZL18utf16BEIteratorGetP13UCharIteratori(ptr noundef %18, i32 noundef %19)
  store i32 %20, ptr %2, align 4
  store i32 1, ptr %5, align 4
  br label %22

21:                                               ; preds = %1
  store i32 -1, ptr %2, align 4
  store i32 1, ptr %5, align 4
  br label %22

22:                                               ; preds = %21, %13
  call void @llvm.lifetime.end.p0(i64 4, ptr %4) #8
  %23 = load i32, ptr %2, align 4
  ret i32 %23
}