; Function Attrs: mustprogress nofree norecurse nosync nounwind willreturn memory(read, argmem: readwrite, inaccessiblemem: none) uwtable
define internal noundef range(i32 -1, 65536) i32 @_ZL19utf16BEIteratorNextP13UCharIterator(ptr noundef captures(none) %0) #9 {
  %2 = getelementptr inbounds nuw i8, ptr %0, i64 16
  %3 = load i32, ptr %2, align 8, !tbaa !28
  %4 = getelementptr inbounds nuw i8, ptr %0, i64 20
  %5 = load i32, ptr %4, align 4, !tbaa !13
  %6 = icmp slt i32 %3, %5
  br i1 %6, label %7, label %21

7:                                                ; preds = %1
  %8 = add nsw i32 %3, 1
  store i32 %8, ptr %2, align 8, !tbaa !28
  %.val = load ptr, ptr %0, align 8, !tbaa !10
  %9 = shl nsw i32 %3, 1
  %10 = sext i32 %9 to i64
  %11 = getelementptr inbounds i8, ptr %.val, i64 %10
  %12 = load i8, ptr %11, align 1, !tbaa !14
  %13 = zext i8 %12 to i32
  %14 = shl nuw nsw i32 %13, 8
  %15 = or disjoint i32 %9, 1
  %16 = sext i32 %15 to i64
  %17 = getelementptr inbounds i8, ptr %.val, i64 %16
  %18 = load i8, ptr %17, align 1, !tbaa !14
  %19 = zext i8 %18 to i32
  %20 = or disjoint i32 %14, %19
  br label %21

21:                                               ; preds = %1, %7
  %.0 = phi i32 [ %20, %7 ], [ -1, %1 ]
  ret i32 %.0
}